target datalayout = "e-m:e-p270:32:32-p271:32:32-p272:64:64-i64:64-i128:128-f80:128-n8:16:32:64-S128"
target triple = "x86_64-pc-linux-gnu"

%"struct.boost::unit_test::log::begin" = type { %"class.boost::unit_test::basic_cstring", i64 }
%"class.boost::unit_test::basic_cstring" = type { ptr, ptr }
%struct.__va_list_tag = type { i32, i32, ptr, ptr }
%"struct.boost::unit_test::log::end" = type { i8 }
%"struct.boost::execution_aborted" = type { i8 }
%"class.boost::test_tools::assertion_result" = type { %"class.boost::test_tools::assertion_result::readonly_property65", %"class.boost::shared_ptr" }
%"class.boost::test_tools::assertion_result::readonly_property65" = type { %"class.boost::unit_test::readonly_property" }
%"class.boost::unit_test::readonly_property" = type { %"class.boost::unit_test::class_property" }
%"class.boost::unit_test::class_property" = type { i8 }
%"class.boost::shared_ptr" = type { ptr, %"class.boost::detail::shared_count" }
%"class.boost::detail::shared_count" = type { ptr }

@_ZN5boost9unit_test12_GLOBAL__N_113unit_test_logE = internal global ptr null, align 8
@.str.5 = private unnamed_addr constant [7 x i8] c"check \00", align 1
@.str.6 = private unnamed_addr constant [12 x i8] c" has passed\00", align 1
@.str.7 = private unnamed_addr constant [11 x i8] c"condition \00", align 1
@.str.8 = private unnamed_addr constant [18 x i8] c" is not satisfied\00", align 1
@.str.9 = private unnamed_addr constant [12 x i8] c" has failed\00", align 1
@.str.10 = private unnamed_addr constant [16 x i8] c"critical check \00", align 1

; Function Attrs: mustprogress nounwind uwtable
define linkonce_odr hidden noundef zeroext i1 @_ZNK5boost9unit_test14class_propertyIbEntEv(ptr noundef nonnull align 1 dereferenceable(1) %0) #4 comdat align 2 {
  %2 = alloca ptr, align 8
  store ptr %0, ptr %2, align 8, !tbaa !3
  %3 = load ptr, ptr %2, align 8
  %4 = getelementptr inbounds nuw %"class.boost::unit_test::class_property", ptr %3, i32 0, i32 0
  %5 = load i8, ptr %4, align 1, !tbaa !91, !range !11, !noundef !12
  %6 = trunc i8 %5 to i1
  %7 = xor i1 %6, true
  ret i1 %7
}

; Function Attrs: mustprogress uwtable
define linkonce_odr hidden void @_ZN5boost9unit_test3log5beginC2ENS0_13basic_cstringIKcEEm(ptr noundef nonnull align 8 dereferenceable(24) %0, ptr noundef %1, i64 noundef %2) unnamed_addr #5 comdat align 2 {
  %4 = alloca ptr, align 8
  %5 = alloca ptr, align 8
  %6 = alloca i64, align 8
  store ptr %0, ptr %4, align 8, !tbaa !3
  store ptr %1, ptr %5, align 8, !tbaa !3
  store i64 %2, ptr %6, align 8, !tbaa !18
  %7 = load ptr, ptr %4, align 8
  %8 = getelementptr inbounds nuw %"struct.boost::unit_test::log::begin", ptr %7, i32 0, i32 0
  call void @_ZN5boost9unit_test13basic_cstringIKcEC2ERKS3_(ptr noundef nonnull align 8 dereferenceable(16) %8, ptr noundef nonnull align 8 dereferenceable(16) %1)
  %9 = getelementptr inbounds nuw %"struct.boost::unit_test::log::begin", ptr %7, i32 0, i32 1
  %10 = load i64, ptr %6, align 8, !tbaa !18
  store i64 %10, ptr %9, align 8, !tbaa !29
  ret void
}

; Function Attrs: inlinehint mustprogress nounwind uwtable
define linkonce_odr hidden void @_ZN5boost9unit_test13basic_cstringIKcEC2ERKS3_(ptr noundef nonnull align 8 dereferenceable(16) %0, ptr noundef nonnull align 8 dereferenceable(16) %1) unnamed_addr #9 comdat align 2 {
  %3 = alloca ptr, align 8
  %4 = alloca ptr, align 8
  store ptr %0, ptr %3, align 8, !tbaa !3
  store ptr %1, ptr %4, align 8, !tbaa !3
  %5 = load ptr, ptr %3, align 8
  %6 = getelementptr inbounds nuw %"class.boost::unit_test::basic_cstring", ptr %5, i32 0, i32 0
  %7 = load ptr, ptr %4, align 8, !tbaa !3
  %8 = getelementptr inbounds nuw %"class.boost::unit_test::basic_cstring", ptr %7, i32 0, i32 0
  %9 = load ptr, ptr %8, align 8, !tbaa !26
  store ptr %9, ptr %6, align 8, !tbaa !26
  %10 = getelementptr inbounds nuw %"class.boost::unit_test::basic_cstring", ptr %5, i32 0, i32 1
  %11 = load ptr, ptr %4, align 8, !tbaa !3
  %12 = getelementptr inbounds nuw %"class.boost::unit_test::basic_cstring", ptr %11, i32 0, i32 1
  %13 = load ptr, ptr %12, align 8, !tbaa !28
  store ptr %13, ptr %10, align 8, !tbaa !28
  ret void
}

; Function Attrs: mustprogress uwtable
define linkonce_odr hidden noundef zeroext i1 @_ZNK5boost10test_tools16assertion_resultntEv(ptr noundef nonnull align 8 dereferenceable(24) %0) #5 comdat align 2 {
  %2 = alloca ptr, align 8
  store ptr %0, ptr %2, align 8, !tbaa !3
  %3 = load ptr, ptr %2, align 8
  %4 = getelementptr inbounds nuw %"class.boost::test_tools::assertion_result", ptr %3, i32 0, i32 0
  %5 = call noundef zeroext i1 @_ZNK5boost9unit_test14class_propertyIbEntEv(ptr noundef nonnull align 1 dereferenceable(1) %4)
  ret i1 %5
}

; Function Attrs: mustprogress uwtable
define noundef zeroext i1 @_ZN5boost10test_tools9tt_detail16report_assertionERKNS0_16assertion_resultERKNS_9unit_test12lazy_ostreamENS5_13basic_cstringIKcEEmNS1_10tool_levelENS1_10check_typeEmz(ptr noundef nonnull align 8 dereferenceable(24) %0, ptr noundef nonnull align 8 dereferenceable(9) %1, ptr noundef %2, i64 noundef %3, i32 noundef %4, i32 noundef %5, i64 noundef %6, ...) #5 {
  %8 = alloca i1, align 1
  %9 = alloca ptr, align 8
  %10 = alloca ptr, align 8
  %11 = alloca ptr, align 8
  %12 = alloca i64, align 8
  %13 = alloca i32, align 4
  %14 = alloca i32, align 4
  %15 = alloca i64, align 8
  %16 = alloca i32, align 4
  %17 = alloca ptr, align 8
  %18 = alloca ptr, align 8
  %19 = alloca i32, align 4
  %20 = alloca %"struct.boost::unit_test::log::begin", align 8
  %21 = alloca %"class.boost::unit_test::basic_cstring", align 8
  %22 = alloca [1 x %struct.__va_list_tag], align 16
  %23 = alloca %"struct.boost::unit_test::log::end", align 1
  %24 = alloca %"struct.boost::execution_aborted", align 1
  store ptr %0, ptr %9, align 8, !tbaa !3
  store ptr %1, ptr %10, align 8, !tbaa !3
  store ptr %2, ptr %11, align 8, !tbaa !3
  store i64 %3, ptr %12, align 8, !tbaa !18
  store i32 %4, ptr %13, align 4, !tbaa !20
  store i32 %5, ptr %14, align 4, !tbaa !22
  store i64 %6, ptr %15, align 8, !tbaa !18
  %25 = call noundef zeroext i1 @_ZN5boost9unit_test9framework16test_in_progressEv()
  br i1 %25, label %27, label %26

26:                                               ; preds = %7
  call void @_ZN5boost9unit_test9framework12test_abortedEv()
  store i1 false, ptr %8, align 1
  br label %66

27:                                               ; preds = %7
  %28 = load ptr, ptr %9, align 8, !tbaa !3
  %29 = call noundef zeroext i1 @_ZNK5boost10test_tools16assertion_resultntEv(ptr noundef nonnull align 8 dereferenceable(24) %28)
  br i1 %29, label %31, label %30

30:                                               ; preds = %27
  store i32 3, ptr %13, align 4, !tbaa !20
  br label %31

31:                                               ; preds = %30, %27
  call void @llvm.lifetime.start.p0(i64 4, ptr %16) #3
  call void @llvm.lifetime.start.p0(i64 8, ptr %17) #3
  call void @llvm.lifetime.start.p0(i64 8, ptr %18) #3
  %32 = load i32, ptr %13, align 4, !tbaa !20
  switch i32 %32, label %37 [
    i32 3, label %33
    i32 0, label %34
    i32 1, label %35
    i32 2, label %36
  ]

33:                                               ; preds = %31
  store i32 0, ptr %16, align 4, !tbaa !24
  store ptr @.str.5, ptr %17, align 8, !tbaa !3
  store ptr @.str.6, ptr %18, align 8, !tbaa !3
  br label %38

34:                                               ; preds = %31
  store i32 3, ptr %16, align 4, !tbaa !24
  store ptr @.str.7, ptr %17, align 8, !tbaa !3
  store ptr @.str.8, ptr %18, align 8, !tbaa !3
  br label %38

35:                                               ; preds = %31
  store i32 4, ptr %16, align 4, !tbaa !24
  store ptr @.str.5, ptr %17, align 8, !tbaa !3
  store ptr @.str.9, ptr %18, align 8, !tbaa !3
  br label %38

36:                                               ; preds = %31
  store i32 7, ptr %16, align 4, !tbaa !24
  store ptr @.str.10, ptr %17, align 8, !tbaa !3
  store ptr @.str.9, ptr %18, align 8, !tbaa !3
  br label %38

37:                                               ; preds = %31
  store i1 true, ptr %8, align 1
  store i32 1, ptr %19, align 4
  br label %65

38:                                               ; preds = %36, %35, %34, %33
  %39 = load ptr, ptr @_ZN5boost9unit_test12_GLOBAL__N_113unit_test_logE, align 8, !tbaa !3
  call void @llvm.lifetime.start.p0(i64 24, ptr %20) #3
  call void @_ZN5boost9unit_test13basic_cstringIKcEC2ERKS3_(ptr noundef nonnull align 8 dereferenceable(16) %21, ptr noundef nonnull align 8 dereferenceable(16) %2)
  %40 = load i64, ptr %12, align 8, !tbaa !18
  call void @_ZN5boost9unit_test3log5beginC2ENS0_13basic_cstringIKcEEm(ptr noundef nonnull align 8 dereferenceable(24) %20, ptr noundef %21, i64 noundef %40)
  %41 = call noundef nonnull align 8 dereferenceable(8) ptr @_ZN5boost9unit_test15unit_test_log_tlsERKNS0_3log5beginE(ptr noundef nonnull align 8 dereferenceable(8) %39, ptr noundef nonnull align 8 dereferenceable(24) %20)
  %42 = load i32, ptr %16, align 4, !tbaa !24
  %43 = call noundef nonnull align 8 dereferenceable(8) ptr @_ZN5boost9unit_test15unit_test_log_tlsENS0_9log_levelE(ptr noundef nonnull align 8 dereferenceable(8) %41, i32 noundef %42)
  call void @llvm.lifetime.end.p0(i64 24, ptr %20) #3
  call void @llvm.lifetime.start.p0(i64 24, ptr %22) #3
  %44 = getelementptr inbounds [1 x %struct.__va_list_tag], ptr %22, i64 0, i64 0
  call void @llvm.va_start.p0(ptr %44)
  %45 = load ptr, ptr @_ZN5boost9unit_test12_GLOBAL__N_113unit_test_logE, align 8, !tbaa !3
  %46 = load ptr, ptr %9, align 8, !tbaa !3
  %47 = load ptr, ptr %10, align 8, !tbaa !3
  %48 = load i32, ptr %13, align 4, !tbaa !20
  %49 = load i32, ptr %14, align 4, !tbaa !22
  %50 = load i64, ptr %15, align 8, !tbaa !18
  %51 = getelementptr inbounds [1 x %struct.__va_list_tag], ptr %22, i64 0, i64 0
  %52 = load ptr, ptr %17, align 8, !tbaa !3
  %53 = load ptr, ptr %18, align 8, !tbaa !3
  call void @_ZN5boost10test_tools9tt_detail13format_reportINS_9unit_test15unit_test_log_tEEEvRT_RKNS0_16assertion_resultERKNS3_12lazy_ostreamENS1_10tool_levelENS1_10check_typeEmP13__va_list_tagPKcSI_(ptr noundef nonnull align 8 dereferenceable(8) %45, ptr noundef nonnull align 8 dereferenceable(24) %46, ptr noundef nonnull align 8 dereferenceable(9) %47, i32 noundef %48, i32 noundef %49, i64 noundef %50, ptr noundef %51, ptr noundef %52, ptr noundef %53)
  %54 = getelementptr inbounds [1 x %struct.__va_list_tag], ptr %22, i64 0, i64 0
  call void @llvm.va_end.p0(ptr %54)
  %55 = load ptr, ptr @_ZN5boost9unit_test12_GLOBAL__N_113unit_test_logE, align 8, !tbaa !3
  call void @llvm.lifetime.start.p0(i64 1, ptr %23) #3
  %56 = call noundef nonnull align 8 dereferenceable(8) ptr @_ZN5boost9unit_test15unit_test_log_tlsERKNS0_3log3endE(ptr noundef nonnull align 8 dereferenceable(8) %55, ptr noundef nonnull align 1 dereferenceable(1) %23)
  call void @llvm.lifetime.end.p0(i64 1, ptr %23) #3
  %57 = load i32, ptr %13, align 4, !tbaa !20
  switch i32 %57, label %63 [
    i32 3, label %58
    i32 0, label %59
    i32 1, label %60
    i32 2, label %61
  ]

58:                                               ; preds = %38
  call void @_ZN5boost9unit_test9framework16assertion_resultENS0_16assertion_resultE(i32 noundef 1)
  store i1 true, ptr %8, align 1
  store i32 1, ptr %19, align 4
  br label %64

59:                                               ; preds = %38
  call void @_ZN5boost9unit_test9framework16assertion_resultENS0_16assertion_resultE(i32 noundef 2)
  store i1 false, ptr %8, align 1
  store i32 1, ptr %19, align 4
  br label %64

60:                                               ; preds = %38
  call void @_ZN5boost9unit_test9framework16assertion_resultENS0_16assertion_resultE(i32 noundef 0)
  store i1 false, ptr %8, align 1
  store i32 1, ptr %19, align 4
  br label %64

61:                                               ; preds = %38
  call void @_ZN5boost9unit_test9framework16assertion_resultENS0_16assertion_resultE(i32 noundef 0)
  %62 = call noundef nonnull align 8 dereferenceable(280) ptr @_ZN5boost9unit_test9framework17current_test_unitEv()
  call void @_ZN5boost9unit_test9framework17test_unit_abortedERKNS0_9test_unitE(ptr noundef nonnull align 8 dereferenceable(280) %62)
  call void @llvm.lifetime.start.p0(i64 1, ptr %24) #3
  call void @_ZN5boost9unit_test9ut_detail15throw_exceptionINS_17execution_abortedEEEvRKT_(ptr noundef nonnull align 1 dereferenceable(1) %24) #23
  unreachable

63:                                               ; preds = %38
  store i1 true, ptr %8, align 1
  store i32 1, ptr %19, align 4
  br label %64

64:                                               ; preds = %63, %60, %59, %58
  call void @llvm.lifetime.end.p0(i64 24, ptr %22) #3
  br label %65

65:                                               ; preds = %64, %37
  call void @llvm.lifetime.end.p0(i64 8, ptr %18) #3
  call void @llvm.lifetime.end.p0(i64 8, ptr %17) #3
  call void @llvm.lifetime.end.p0(i64 4, ptr %16) #3
  br label %66

66:                                               ; preds = %65, %26
  %67 = load i1, ptr %8, align 1
  ret i1 %67
}