; Function Attrs: mustprogress uwtable
define noundef zeroext i1 @_ZN5boost10test_tools9tt_detail16report_assertionERKNS0_16assertion_resultERKNS_9unit_test12lazy_ostreamENS5_13basic_cstringIKcEEmNS1_10tool_levelENS1_10check_typeEmz(ptr noundef nonnull align 8 dereferenceable(24) %0, ptr noundef nonnull align 8 dereferenceable(9) %1, ptr nocapture noundef readonly %2, i64 noundef %3, i32 noundef %4, i32 noundef %5, i64 noundef %6, ...) local_unnamed_addr #3 {
  %8 = alloca %"struct.boost::unit_test::log::begin", align 8
  %9 = alloca [1 x %struct.__va_list_tag], align 16
  %10 = alloca %"struct.boost::unit_test::log::end", align 1
  %11 = alloca %"struct.boost::execution_aborted", align 1
  %12 = tail call noundef zeroext i1 @_ZN5boost9unit_test9framework16test_in_progressEv()
  br i1 %12, label %14, label %13

13:                                               ; preds = %7
  tail call void @_ZN5boost9unit_test9framework12test_abortedEv()
  br label %37

14:                                               ; preds = %7
  %15 = load i8, ptr %0, align 8, !tbaa !23, !range !26, !noundef !27
  %16 = trunc nuw i8 %15 to i1
  %spec.select = select i1 %16, i32 3, i32 %4
  %17 = icmp ult i32 %spec.select, 4
  br i1 %17, label %switch.lookup, label %37

switch.lookup:                                    ; preds = %14
  %18 = zext nneg i32 %spec.select to i64
  %switch.gep = getelementptr inbounds [4 x i32], ptr @switch.table._ZN5boost10test_tools9tt_detail16report_assertionERKNS0_16assertion_resultERKNS_9unit_test12lazy_ostreamENS5_13basic_cstringIKcEEmNS1_10tool_levelENS1_10check_typeEmz, i64 0, i64 %18
  %switch.load = load i32, ptr %switch.gep, align 4
  %19 = zext nneg i32 %spec.select to i64
  %switch.gep16 = getelementptr inbounds [4 x ptr], ptr @switch.table._ZN5boost10test_tools9tt_detail16report_assertionERKNS0_16assertion_resultERKNS_9unit_test12lazy_ostreamENS5_13basic_cstringIKcEEmNS1_10tool_levelENS1_10check_typeEmz.1, i64 0, i64 %19
  %switch.load17 = load ptr, ptr %switch.gep16, align 8
  %20 = zext nneg i32 %spec.select to i64
  %switch.gep18 = getelementptr inbounds [4 x ptr], ptr @switch.table._ZN5boost10test_tools9tt_detail16report_assertionERKNS0_16assertion_resultERKNS_9unit_test12lazy_ostreamENS5_13basic_cstringIKcEEmNS1_10tool_levelENS1_10check_typeEmz.2, i64 0, i64 %20
  %switch.load19 = load ptr, ptr %switch.gep18, align 8
  %21 = load ptr, ptr @_ZN5boost9unit_test12_GLOBAL__N_113unit_test_logE, align 8, !tbaa !28
  call void @llvm.lifetime.start.p0(i64 24, ptr nonnull %8) #30
  %22 = load ptr, ptr %2, align 8, !tbaa !29
  %23 = getelementptr inbounds nuw i8, ptr %2, i64 8
  %24 = load ptr, ptr %23, align 8, !tbaa !31
  store ptr %22, ptr %8, align 8, !tbaa !29
  %25 = getelementptr inbounds nuw i8, ptr %8, i64 8
  store ptr %24, ptr %25, align 8, !tbaa !31
  %26 = getelementptr inbounds nuw i8, ptr %8, i64 16
  store i64 %3, ptr %26, align 8, !tbaa !32
  %27 = call noundef nonnull align 8 dereferenceable(8) ptr @_ZN5boost9unit_test15unit_test_log_tlsERKNS0_3log5beginE(ptr noundef nonnull align 8 dereferenceable(8) %21, ptr noundef nonnull align 8 dereferenceable(24) %8)
  %28 = call noundef nonnull align 8 dereferenceable(8) ptr @_ZN5boost9unit_test15unit_test_log_tlsENS0_9log_levelE(ptr noundef nonnull align 8 dereferenceable(8) %27, i32 noundef %switch.load)
  call void @llvm.lifetime.end.p0(i64 24, ptr nonnull %8) #30
  call void @llvm.lifetime.start.p0(i64 24, ptr nonnull %9) #30
  call void @llvm.va_start.p0(ptr nonnull %9)
  %29 = load ptr, ptr @_ZN5boost9unit_test12_GLOBAL__N_113unit_test_logE, align 8, !tbaa !28
  call void @_ZN5boost10test_tools9tt_detail13format_reportINS_9unit_test15unit_test_log_tEEEvRT_RKNS0_16assertion_resultERKNS3_12lazy_ostreamENS1_10tool_levelENS1_10check_typeEmP13__va_list_tagPKcSI_(ptr noundef nonnull align 8 dereferenceable(8) %29, ptr noundef nonnull align 8 dereferenceable(24) %0, ptr noundef nonnull align 8 dereferenceable(9) %1, i32 noundef %spec.select, i32 noundef %5, i64 noundef %6, ptr noundef nonnull %9, ptr noundef nonnull %switch.load17, ptr noundef nonnull %switch.load19)
  call void @llvm.va_end.p0(ptr nonnull %9)
  %30 = load ptr, ptr @_ZN5boost9unit_test12_GLOBAL__N_113unit_test_logE, align 8, !tbaa !28
  call void @llvm.lifetime.start.p0(i64 1, ptr nonnull %10) #30
  %31 = call noundef nonnull align 8 dereferenceable(8) ptr @_ZN5boost9unit_test15unit_test_log_tlsERKNS0_3log3endE(ptr noundef nonnull align 8 dereferenceable(8) %30, ptr noundef nonnull align 1 dereferenceable(1) %10)
  call void @llvm.lifetime.end.p0(i64 1, ptr nonnull %10) #30
  switch i32 %spec.select, label %default.unreachable [
    i32 3, label %36
    i32 0, label %32
    i32 1, label %33
    i32 2, label %34
  ]

32:                                               ; preds = %switch.lookup
  br label %36

33:                                               ; preds = %switch.lookup
  br label %36

34:                                               ; preds = %switch.lookup
  call void @_ZN5boost9unit_test9framework16assertion_resultENS0_16assertion_resultE(i32 noundef 0)
  %35 = call noundef nonnull align 8 dereferenceable(280) ptr @_ZN5boost9unit_test9framework17current_test_unitEv()
  call void @_ZN5boost9unit_test9framework17test_unit_abortedERKNS0_9test_unitE(ptr noundef nonnull align 8 dereferenceable(280) %35)
  call void @llvm.lifetime.start.p0(i64 1, ptr nonnull %11) #30
  call void @_ZN5boost9unit_test9ut_detail15throw_exceptionINS_17execution_abortedEEEvRKT_(ptr noundef nonnull align 1 dereferenceable(1) %11) #32
  unreachable

default.unreachable:                              ; preds = %switch.lookup
  unreachable

36:                                               ; preds = %switch.lookup, %33, %32
  %.sink = phi i32 [ 0, %33 ], [ 2, %32 ], [ 1, %switch.lookup ]
  %.2 = phi i1 [ false, %33 ], [ false, %32 ], [ true, %switch.lookup ]
  call void @_ZN5boost9unit_test9framework16assertion_resultENS0_16assertion_resultE(i32 noundef %.sink)
  call void @llvm.lifetime.end.p0(i64 24, ptr nonnull %9) #30
  br label %37

37:                                               ; preds = %14, %36, %13
  %.014 = phi i1 [ false, %13 ], [ %.2, %36 ], [ true, %14 ]
  ret i1 %.014
}